target datalayout = "e-m:e-p270:32:32-p271:32:32-p272:64:64-i64:64-i128:128-f80:128-n8:16:32:64-S128"
target triple = "x86_64-pc-linux-gnu"

%struct.AVDictionaryEntry = type { ptr, ptr }

@.str.11 = private unnamed_addr constant [1 x i8] zeroinitializer, align 1
@.str.15 = private unnamed_addr constant [2 x i8] c"\0A\00", align 1
@.str.28 = private unnamed_addr constant [2 x i8] c" \00", align 1
@.str.37 = private unnamed_addr constant [9 x i8] c"language\00", align 1
@.str.39 = private unnamed_addr constant [7 x i8] c"%s%s:\0A\00", align 1
@.str.40 = private unnamed_addr constant [12 x i8] c"%s  %-16s: \00", align 1
@.str.41 = private unnamed_addr constant [6 x i8] c"\08\0A\0B\0C\0D\00", align 1
@.str.42 = private unnamed_addr constant [5 x i8] c"%.*s\00", align 1
@.str.43 = private unnamed_addr constant [13 x i8] c"\0A%s  %-16s: \00", align 1

; Function Attrs: nounwind uwtable
define internal void @dump_dictionary(ptr noundef %0, ptr noundef %1, ptr noundef %2, ptr noundef %3, i32 noundef %4) #0 {
  %6 = alloca ptr, align 8
  %7 = alloca ptr, align 8
  %8 = alloca ptr, align 8
  %9 = alloca ptr, align 8
  %10 = alloca i32, align 4
  %11 = alloca ptr, align 8
  %12 = alloca i32, align 4
  %13 = alloca ptr, align 8
  %14 = alloca i64, align 8
  store ptr %0, ptr %6, align 8, !tbaa !13
  store ptr %1, ptr %7, align 8, !tbaa !91
  store ptr %2, ptr %8, align 8, !tbaa !9
  store ptr %3, ptr %9, align 8, !tbaa !9
  store i32 %4, ptr %10, align 4, !tbaa !11
  call void @llvm.lifetime.start.p0(i64 8, ptr %11) #9
  store ptr null, ptr %11, align 8, !tbaa !79
  %15 = load ptr, ptr %7, align 8, !tbaa !91
  %16 = icmp ne ptr %15, null
  br i1 %16, label %18, label %17

17:                                               ; preds = %5
  store i32 1, ptr %12, align 4
  br label %94

18:                                               ; preds = %5
  %19 = load ptr, ptr %6, align 8, !tbaa !13
  %20 = load i32, ptr %10, align 4, !tbaa !11
  %21 = load ptr, ptr %9, align 8, !tbaa !9
  %22 = load ptr, ptr %8, align 8, !tbaa !9
  call void (ptr, i32, ptr, ...) @av_log(ptr noundef %19, i32 noundef %20, ptr noundef @.str.39, ptr noundef %21, ptr noundef %22)
  br label %23

23:                                               ; preds = %92, %18
  %24 = load ptr, ptr %7, align 8, !tbaa !91
  %25 = load ptr, ptr %11, align 8, !tbaa !79
  %26 = call ptr @av_dict_iterate(ptr noundef %24, ptr noundef %25)
  store ptr %26, ptr %11, align 8, !tbaa !79
  %27 = icmp ne ptr %26, null
  br i1 %27, label %28, label %93

28:                                               ; preds = %23
  %29 = load ptr, ptr %11, align 8, !tbaa !79
  %30 = getelementptr inbounds nuw %struct.AVDictionaryEntry, ptr %29, i32 0, i32 0
  %31 = load ptr, ptr %30, align 8, !tbaa !230
  %32 = call i32 @strcmp(ptr noundef @.str.37, ptr noundef %31) #11
  %33 = icmp ne i32 %32, 0
  br i1 %33, label %34, label %92

34:                                               ; preds = %28
  call void @llvm.lifetime.start.p0(i64 8, ptr %13) #9
  %35 = load ptr, ptr %11, align 8, !tbaa !79
  %36 = getelementptr inbounds nuw %struct.AVDictionaryEntry, ptr %35, i32 0, i32 1
  %37 = load ptr, ptr %36, align 8, !tbaa !82
  store ptr %37, ptr %13, align 8, !tbaa !9
  %38 = load ptr, ptr %6, align 8, !tbaa !13
  %39 = load i32, ptr %10, align 4, !tbaa !11
  %40 = load ptr, ptr %9, align 8, !tbaa !9
  %41 = load ptr, ptr %11, align 8, !tbaa !79
  %42 = getelementptr inbounds nuw %struct.AVDictionaryEntry, ptr %41, i32 0, i32 0
  %43 = load ptr, ptr %42, align 8, !tbaa !230
  call void (ptr, i32, ptr, ...) @av_log(ptr noundef %38, i32 noundef %39, ptr noundef @.str.40, ptr noundef %40, ptr noundef %43)
  br label %44

44:                                               ; preds = %88, %34
  %45 = load ptr, ptr %13, align 8, !tbaa !9
  %46 = load i8, ptr %45, align 1, !tbaa !14
  %47 = icmp ne i8 %46, 0
  br i1 %47, label %48, label %89

48:                                               ; preds = %44
  call void @llvm.lifetime.start.p0(i64 8, ptr %14) #9
  %49 = load ptr, ptr %13, align 8, !tbaa !9
  %50 = call i64 @strcspn(ptr noundef %49, ptr noundef @.str.41) #11
  store i64 %50, ptr %14, align 8, !tbaa !60
  %51 = load ptr, ptr %6, align 8, !tbaa !13
  %52 = load i32, ptr %10, align 4, !tbaa !11
  %53 = load i64, ptr %14, align 8, !tbaa !60
  %54 = icmp ugt i64 255, %53
  br i1 %54, label %55, label %57

55:                                               ; preds = %48
  %56 = load i64, ptr %14, align 8, !tbaa !60
  br label %58

57:                                               ; preds = %48
  br label %58

58:                                               ; preds = %57, %55
  %59 = phi i64 [ %56, %55 ], [ 255, %57 ]
  %60 = trunc i64 %59 to i32
  %61 = load ptr, ptr %13, align 8, !tbaa !9
  call void (ptr, i32, ptr, ...) @av_log(ptr noundef %51, i32 noundef %52, ptr noundef @.str.42, i32 noundef %60, ptr noundef %61)
  %62 = load i64, ptr %14, align 8, !tbaa !60
  %63 = load ptr, ptr %13, align 8, !tbaa !9
  %64 = getelementptr inbounds nuw i8, ptr %63, i64 %62
  store ptr %64, ptr %13, align 8, !tbaa !9
  %65 = load ptr, ptr %13, align 8, !tbaa !9
  %66 = load i8, ptr %65, align 1, !tbaa !14
  %67 = sext i8 %66 to i32
  %68 = icmp eq i32 %67, 13
  br i1 %68, label %69, label %72

69:                                               ; preds = %58
  %70 = load ptr, ptr %6, align 8, !tbaa !13
  %71 = load i32, ptr %10, align 4, !tbaa !11
  call void (ptr, i32, ptr, ...) @av_log(ptr noundef %70, i32 noundef %71, ptr noundef @.str.28)
  br label %72

72:                                               ; preds = %69, %58
  %73 = load ptr, ptr %13, align 8, !tbaa !9
  %74 = load i8, ptr %73, align 1, !tbaa !14
  %75 = sext i8 %74 to i32
  %76 = icmp eq i32 %75, 10
  br i1 %76, label %77, label %81

77:                                               ; preds = %72
  %78 = load ptr, ptr %6, align 8, !tbaa !13
  %79 = load i32, ptr %10, align 4, !tbaa !11
  %80 = load ptr, ptr %9, align 8, !tbaa !9
  call void (ptr, i32, ptr, ...) @av_log(ptr noundef %78, i32 noundef %79, ptr noundef @.str.43, ptr noundef %80, ptr noundef @.str.11)
  br label %81

81:                                               ; preds = %77, %72
  %82 = load ptr, ptr %13, align 8, !tbaa !9
  %83 = load i8, ptr %82, align 1, !tbaa !14
  %84 = icmp ne i8 %83, 0
  br i1 %84, label %85, label %88

85:                                               ; preds = %81
  %86 = load ptr, ptr %13, align 8, !tbaa !9
  %87 = getelementptr inbounds nuw i8, ptr %86, i32 1
  store ptr %87, ptr %13, align 8, !tbaa !9
  br label %88

88:                                               ; preds = %85, %81
  call void @llvm.lifetime.end.p0(i64 8, ptr %14) #9
  br label %44, !llvm.loop !231

89:                                               ; preds = %44
  %90 = load ptr, ptr %6, align 8, !tbaa !13
  %91 = load i32, ptr %10, align 4, !tbaa !11
  call void (ptr, i32, ptr, ...) @av_log(ptr noundef %90, i32 noundef %91, ptr noundef @.str.15)
  call void @llvm.lifetime.end.p0(i64 8, ptr %13) #9
  br label %92

92:                                               ; preds = %89, %28
  br label %23, !llvm.loop !232

93:                                               ; preds = %23
  store i32 0, ptr %12, align 4
  br label %94

94:                                               ; preds = %93, %17
  call void @llvm.lifetime.end.p0(i64 8, ptr %11) #9
  %95 = load i32, ptr %12, align 4
  switch i32 %95, label %97 [
    i32 0, label %96
    i32 1, label %96
  ]

96:                                               ; preds = %94, %94
  ret void

97:                                               ; preds = %94
  unreachable
}