; Function Attrs: nounwind uwtable
define internal fastcc void @dump_dictionary(ptr noundef %0, ptr noundef %1, ptr noundef %2, i32 noundef range(i32 32, 41) %3) unnamed_addr #0 {
  %.not = icmp eq ptr %0, null
  br i1 %.not, label %.loopexit, label %5

5:                                                ; preds = %4
  tail call void (ptr, i32, ptr, ...) @av_log(ptr noundef null, i32 noundef %3, ptr noundef nonnull @.str.39, ptr noundef %2, ptr noundef %1) #9
  %6 = tail call ptr @av_dict_iterate(ptr noundef nonnull %0, ptr noundef null) #9
  %.not353 = icmp eq ptr %6, null
  br i1 %.not353, label %.loopexit, label %.lr.ph5

.lr.ph5:                                          ; preds = %5, %28
  %7 = phi ptr [ %29, %28 ], [ %6, %5 ]
  %8 = load ptr, ptr %7, align 8, !tbaa !201
  %9 = tail call i32 @strcmp(ptr noundef nonnull dereferenceable(9) @.str.37, ptr noundef nonnull dereferenceable(1) %8) #11
  %.not36 = icmp eq i32 %9, 0
  br i1 %.not36, label %28, label %10

10:                                               ; preds = %.lr.ph5
  %11 = getelementptr inbounds nuw i8, ptr %7, i64 8
  %12 = load ptr, ptr %11, align 8, !tbaa !63
  tail call void (ptr, i32, ptr, ...) @av_log(ptr noundef null, i32 noundef %3, ptr noundef nonnull @.str.40, ptr noundef %2, ptr noundef nonnull %8) #9
  %13 = load i8, ptr %12, align 1, !tbaa !4
  %.not371 = icmp eq i8 %13, 0
  br i1 %.not371, label %._crit_edge, label %.lr.ph

.lr.ph:                                           ; preds = %10, %25
  %.0322 = phi ptr [ %spec.select, %25 ], [ %12, %10 ]
  %14 = tail call i64 @strcspn(ptr noundef nonnull %.0322, ptr noundef nonnull @.str.41) #11
  %15 = tail call i64 @llvm.umin.i64(i64 %14, i64 255)
  %16 = trunc nuw nsw i64 %15 to i32
  tail call void (ptr, i32, ptr, ...) @av_log(ptr noundef null, i32 noundef %3, ptr noundef nonnull @.str.42, i32 noundef %16, ptr noundef nonnull %.0322) #9
  %17 = getelementptr inbounds nuw i8, ptr %.0322, i64 %14
  %18 = load i8, ptr %17, align 1, !tbaa !4
  %19 = icmp eq i8 %18, 13
  br i1 %19, label %20, label %21

20:                                               ; preds = %.lr.ph
  tail call void (ptr, i32, ptr, ...) @av_log(ptr noundef null, i32 noundef %3, ptr noundef nonnull @.str.28) #9
  %.pr = load i8, ptr %17, align 1, !tbaa !4
  br label %21

21:                                               ; preds = %20, %.lr.ph
  %22 = phi i8 [ %.pr, %20 ], [ %18, %.lr.ph ]
  %23 = icmp eq i8 %22, 10
  br i1 %23, label %24, label %25

24:                                               ; preds = %21
  tail call void (ptr, i32, ptr, ...) @av_log(ptr noundef null, i32 noundef %3, ptr noundef nonnull @.str.43, ptr noundef %2, ptr noundef nonnull @.str.11) #9
  %.pre = load i8, ptr %17, align 1, !tbaa !4
  br label %25

25:                                               ; preds = %24, %21
  %26 = phi i8 [ %.pre, %24 ], [ %22, %21 ]
  %.not38 = icmp ne i8 %26, 0
  %spec.select.idx = zext i1 %.not38 to i64
  %spec.select = getelementptr inbounds nuw i8, ptr %17, i64 %spec.select.idx
  %27 = load i8, ptr %spec.select, align 1, !tbaa !4
  %.not37 = icmp eq i8 %27, 0
  br i1 %.not37, label %._crit_edge, label %.lr.ph, !llvm.loop !202

._crit_edge:                                      ; preds = %25, %10
  tail call void (ptr, i32, ptr, ...) @av_log(ptr noundef null, i32 noundef %3, ptr noundef nonnull @.str.15) #9
  br label %28

28:                                               ; preds = %._crit_edge, %.lr.ph5
  %29 = tail call ptr @av_dict_iterate(ptr noundef nonnull %0, ptr noundef nonnull %7) #9
  %.not35 = icmp eq ptr %29, null
  br i1 %.not35, label %.loopexit, label %.lr.ph5, !llvm.loop !203

.loopexit:                                        ; preds = %28, %5, %4
  ret void
}